target datalayout = "e-m:e-p270:32:32-p271:32:32-p272:64:64-i64:64-i128:128-f80:128-n8:16:32:64-S128"
target triple = "x86_64-pc-linux-gnu"

%struct.Abc_Ntk_t_ = type { i32, i32, ptr, ptr, ptr, ptr, ptr, ptr, ptr, ptr, ptr, ptr, ptr, [11 x i32], i32, i32, i32, i32, ptr, i32, ptr, ptr, i32, i32, i32, double, i32, %struct.Vec_Int_t_, ptr, ptr, ptr, ptr, ptr, float, i32, ptr, ptr, ptr, ptr, ptr, ptr, ptr, ptr, ptr, ptr, ptr, ptr, ptr, ptr, ptr, ptr, ptr, ptr, ptr, ptr, ptr }
%struct.Vec_Int_t_ = type { i32, i32, ptr }
%struct.Vec_Ptr_t_ = type { i32, i32, ptr }
%struct.Abc_Obj_t_ = type { ptr, ptr, i32, i32, %struct.Vec_Int_t_, %struct.Vec_Int_t_, %union.anon, %union.anon.0 }
%union.anon = type { ptr }
%union.anon.0 = type { ptr }

; Function Attrs: nounwind uwtable
define internal ptr @Abc_NtkCreateNode(ptr noundef %0) #0 {
  %2 = alloca ptr, align 8
  store ptr %0, ptr %2, align 8
  %3 = load ptr, ptr %2, align 8
  %4 = call ptr @Abc_NtkCreateObj(ptr noundef %3, i32 noundef 7)
  ret ptr %4
}

; Function Attrs: nounwind uwtable
define internal ptr @Abc_ObjFanin(ptr noundef %0, i32 noundef %1) #0 {
  %3 = alloca ptr, align 8
  %4 = alloca i32, align 4
  store ptr %0, ptr %3, align 8
  store i32 %1, ptr %4, align 4
  %5 = load ptr, ptr %3, align 8
  %6 = getelementptr inbounds %struct.Abc_Obj_t_, ptr %5, i32 0, i32 0
  %7 = load ptr, ptr %6, align 8
  %8 = getelementptr inbounds %struct.Abc_Ntk_t_, ptr %7, i32 0, i32 5
  %9 = load ptr, ptr %8, align 8
  %10 = getelementptr inbounds %struct.Vec_Ptr_t_, ptr %9, i32 0, i32 2
  %11 = load ptr, ptr %10, align 8
  %12 = load ptr, ptr %3, align 8
  %13 = getelementptr inbounds %struct.Abc_Obj_t_, ptr %12, i32 0, i32 4
  %14 = getelementptr inbounds %struct.Vec_Int_t_, ptr %13, i32 0, i32 2
  %15 = load ptr, ptr %14, align 8
  %16 = load i32, ptr %4, align 4
  %17 = sext i32 %16 to i64
  %18 = getelementptr inbounds i32, ptr %15, i64 %17
  %19 = load i32, ptr %18, align 4
  %20 = sext i32 %19 to i64
  %21 = getelementptr inbounds ptr, ptr %11, i64 %20
  %22 = load ptr, ptr %21, align 8
  ret ptr %22
}

; Function Attrs: nounwind uwtable
define internal i32 @Abc_ObjFaninNum(ptr noundef %0) #0 {
  %2 = alloca ptr, align 8
  store ptr %0, ptr %2, align 8
  %3 = load ptr, ptr %2, align 8
  %4 = getelementptr inbounds %struct.Abc_Obj_t_, ptr %3, i32 0, i32 4
  %5 = getelementptr inbounds %struct.Vec_Int_t_, ptr %4, i32 0, i32 1
  %6 = load i32, ptr %5, align 4
  ret i32 %6
}

; Function Attrs: nounwind uwtable
define void @Abc_NodeSopToCubes(ptr noundef %0, ptr noundef %1, i32 noundef %2) #0 {
  %4 = alloca ptr, align 8
  %5 = alloca ptr, align 8
  %6 = alloca i32, align 4
  %7 = alloca ptr, align 8
  %8 = alloca ptr, align 8
  %9 = alloca ptr, align 8
  %10 = alloca ptr, align 8
  %11 = alloca ptr, align 8
  %12 = alloca i32, align 4
  %13 = alloca i32, align 4
  %14 = alloca i32, align 4
  %15 = alloca i32, align 4
  store ptr %0, ptr %4, align 8
  store ptr %1, ptr %5, align 8
  store i32 %2, ptr %6, align 4
  %16 = load ptr, ptr %4, align 8
  %17 = getelementptr inbounds %struct.Abc_Obj_t_, ptr %16, i32 0, i32 6
  %18 = load ptr, ptr %17, align 8
  store ptr %18, ptr %11, align 8
  %19 = load ptr, ptr %4, align 8
  %20 = call i32 @Abc_ObjFaninNum(ptr noundef %19)
  store i32 %20, ptr %14, align 4
  %21 = load ptr, ptr %11, align 8
  %22 = call i32 @Abc_SopGetCubeNum(ptr noundef %21)
  %23 = icmp slt i32 %22, 2
  br i1 %23, label %24, label %48

24:                                               ; preds = %3
  %25 = load ptr, ptr %5, align 8
  %26 = load ptr, ptr %4, align 8
  %27 = call ptr @Abc_NtkDupObj(ptr noundef %25, ptr noundef %26, i32 noundef 0)
  store ptr %27, ptr %8, align 8
  store i32 0, ptr %12, align 4
  br label %28

28:                                               ; preds = %44, %24
  %29 = load i32, ptr %12, align 4
  %30 = load ptr, ptr %4, align 8
  %31 = call i32 @Abc_ObjFaninNum(ptr noundef %30)
  %32 = icmp slt i32 %29, %31
  br i1 %32, label %33, label %37

33:                                               ; preds = %28
  %34 = load ptr, ptr %4, align 8
  %35 = load i32, ptr %12, align 4
  %36 = call ptr @Abc_ObjFanin(ptr noundef %34, i32 noundef %35)
  store ptr %36, ptr %9, align 8
  br label %37

37:                                               ; preds = %33, %28
  %38 = phi i1 [ false, %28 ], [ true, %33 ]
  br i1 %38, label %39, label %47

39:                                               ; preds = %37
  %40 = load ptr, ptr %8, align 8
  %41 = load ptr, ptr %9, align 8
  %42 = getelementptr inbounds %struct.Abc_Obj_t_, ptr %41, i32 0, i32 7
  %43 = load ptr, ptr %42, align 8
  call void @Abc_ObjAddFanin(ptr noundef %40, ptr noundef %43)
  br label %44

44:                                               ; preds = %39
  %45 = load i32, ptr %12, align 4
  %46 = add nsw i32 %45, 1
  store i32 %46, ptr %12, align 4
  br label %28, !llvm.loop !124

47:                                               ; preds = %37
  br label %193

48:                                               ; preds = %3
  %49 = load ptr, ptr %5, align 8
  %50 = call ptr @Abc_NtkCreateNode(ptr noundef %49)
  store ptr %50, ptr %7, align 8
  %51 = load i32, ptr %6, align 4
  %52 = icmp ne i32 %51, 0
  br i1 %52, label %53, label %62

53:                                               ; preds = %48
  %54 = load ptr, ptr %5, align 8
  %55 = getelementptr inbounds %struct.Abc_Ntk_t_, ptr %54, i32 0, i32 30
  %56 = load ptr, ptr %55, align 8
  %57 = load ptr, ptr %11, align 8
  %58 = call i32 @Abc_SopGetCubeNum(ptr noundef %57)
  %59 = call ptr @Abc_SopCreateXorSpecial(ptr noundef %56, i32 noundef %58)
  %60 = load ptr, ptr %7, align 8
  %61 = getelementptr inbounds %struct.Abc_Obj_t_, ptr %60, i32 0, i32 6
  store ptr %59, ptr %61, align 8
  br label %71

62:                                               ; preds = %48
  %63 = load ptr, ptr %5, align 8
  %64 = getelementptr inbounds %struct.Abc_Ntk_t_, ptr %63, i32 0, i32 30
  %65 = load ptr, ptr %64, align 8
  %66 = load ptr, ptr %11, align 8
  %67 = call i32 @Abc_SopGetCubeNum(ptr noundef %66)
  %68 = call ptr @Abc_SopCreateOr(ptr noundef %65, i32 noundef %67, ptr noundef null)
  %69 = load ptr, ptr %7, align 8
  %70 = getelementptr inbounds %struct.Abc_Obj_t_, ptr %69, i32 0, i32 6
  store ptr %68, ptr %70, align 8
  br label %71

71:                                               ; preds = %62, %53
  %72 = load ptr, ptr %11, align 8
  store ptr %72, ptr %10, align 8
  br label %73

73:                                               ; preds = %175, %71
  %74 = load ptr, ptr %10, align 8
  %75 = load i8, ptr %74, align 1
  %76 = icmp ne i8 %75, 0
  br i1 %76, label %77, label %181

77:                                               ; preds = %73
  store i32 0, ptr %15, align 4
  store i32 0, ptr %12, align 4
  br label %78

78:                                               ; preds = %106, %77
  %79 = load ptr, ptr %10, align 8
  %80 = load i32, ptr %12, align 4
  %81 = sext i32 %80 to i64
  %82 = getelementptr inbounds i8, ptr %79, i64 %81
  %83 = load i8, ptr %82, align 1
  %84 = sext i8 %83 to i32
  %85 = icmp ne i32 %84, 32
  br i1 %85, label %86, label %94

86:                                               ; preds = %78
  %87 = load ptr, ptr %10, align 8
  %88 = load i32, ptr %12, align 4
  %89 = sext i32 %88 to i64
  %90 = getelementptr inbounds i8, ptr %87, i64 %89
  %91 = load i8, ptr %90, align 1
  %92 = sext i8 %91 to i32
  store i32 %92, ptr %13, align 4
  %93 = icmp ne i32 %92, 0
  br label %94

94:                                               ; preds = %86, %78
  %95 = phi i1 [ false, %78 ], [ %93, %86 ]
  br i1 %95, label %96, label %109

96:                                               ; preds = %94
  %97 = load i32, ptr %13, align 4
  %98 = icmp eq i32 %97, 48
  br i1 %98, label %102, label %99

99:                                               ; preds = %96
  %100 = load i32, ptr %13, align 4
  %101 = icmp eq i32 %100, 49
  br i1 %101, label %102, label %105

102:                                              ; preds = %99, %96
  %103 = load i32, ptr %15, align 4
  %104 = add nsw i32 %103, 1
  store i32 %104, ptr %15, align 4
  br label %105

105:                                              ; preds = %102, %99
  br label %106

106:                                              ; preds = %105
  %107 = load i32, ptr %12, align 4
  %108 = add nsw i32 %107, 1
  store i32 %108, ptr %12, align 4
  br label %78, !llvm.loop !125

109:                                              ; preds = %94
  %110 = load i32, ptr %15, align 4
  %111 = icmp eq i32 %110, 0
  br i1 %111, label %112, label %117

112:                                              ; preds = %109
  %113 = load ptr, ptr %5, align 8
  %114 = call ptr @Abc_NtkCreateNodeConst1(ptr noundef %113)
  store ptr %114, ptr %8, align 8
  %115 = load ptr, ptr %7, align 8
  %116 = load ptr, ptr %8, align 8
  call void @Abc_ObjAddFanin(ptr noundef %115, ptr noundef %116)
  br label %175

117:                                              ; preds = %109
  %118 = load ptr, ptr %5, align 8
  %119 = call ptr @Abc_NtkCreateNode(ptr noundef %118)
  store ptr %119, ptr %8, align 8
  %120 = load ptr, ptr %5, align 8
  %121 = getelementptr inbounds %struct.Abc_Ntk_t_, ptr %120, i32 0, i32 30
  %122 = load ptr, ptr %121, align 8
  %123 = load i32, ptr %15, align 4
  %124 = call ptr @Abc_SopCreateAnd(ptr noundef %122, i32 noundef %123, ptr noundef null)
  %125 = load ptr, ptr %8, align 8
  %126 = getelementptr inbounds %struct.Abc_Obj_t_, ptr %125, i32 0, i32 6
  store ptr %124, ptr %126, align 8
  store i32 0, ptr %15, align 4
  store i32 0, ptr %12, align 4
  br label %127

127:                                              ; preds = %169, %117
  %128 = load ptr, ptr %10, align 8
  %129 = load i32, ptr %12, align 4
  %130 = sext i32 %129 to i64
  %131 = getelementptr inbounds i8, ptr %128, i64 %130
  %132 = load i8, ptr %131, align 1
  %133 = sext i8 %132 to i32
  %134 = icmp ne i32 %133, 32
  br i1 %134, label %135, label %143

135:                                              ; preds = %127
  %136 = load ptr, ptr %10, align 8
  %137 = load i32, ptr %12, align 4
  %138 = sext i32 %137 to i64
  %139 = getelementptr inbounds i8, ptr %136, i64 %138
  %140 = load i8, ptr %139, align 1
  %141 = sext i8 %140 to i32
  store i32 %141, ptr %13, align 4
  %142 = icmp ne i32 %141, 0
  br label %143

143:                                              ; preds = %135, %127
  %144 = phi i1 [ false, %127 ], [ %142, %135 ]
  br i1 %144, label %145, label %172

145:                                              ; preds = %143
  %146 = load i32, ptr %13, align 4
  %147 = icmp ne i32 %146, 48
  br i1 %147, label %148, label %152

148:                                              ; preds = %145
  %149 = load i32, ptr %13, align 4
  %150 = icmp ne i32 %149, 49
  br i1 %150, label %151, label %152

151:                                              ; preds = %148
  br label %169

152:                                              ; preds = %148, %145
  %153 = load ptr, ptr %8, align 8
  %154 = load ptr, ptr %4, align 8
  %155 = load i32, ptr %12, align 4
  %156 = call ptr @Abc_ObjFanin(ptr noundef %154, i32 noundef %155)
  %157 = getelementptr inbounds %struct.Abc_Obj_t_, ptr %156, i32 0, i32 7
  %158 = load ptr, ptr %157, align 8
  call void @Abc_ObjAddFanin(ptr noundef %153, ptr noundef %158)
  %159 = load i32, ptr %13, align 4
  %160 = icmp eq i32 %159, 48
  br i1 %160, label %161, label %166

161:                                              ; preds = %152
  %162 = load ptr, ptr %8, align 8
  %163 = getelementptr inbounds %struct.Abc_Obj_t_, ptr %162, i32 0, i32 6
  %164 = load ptr, ptr %163, align 8
  %165 = load i32, ptr %15, align 4
  call void @Abc_SopComplementVar(ptr noundef %164, i32 noundef %165)
  br label %166

166:                                              ; preds = %161, %152
  %167 = load i32, ptr %15, align 4
  %168 = add nsw i32 %167, 1
  store i32 %168, ptr %15, align 4
  br label %169

169:                                              ; preds = %166, %151
  %170 = load i32, ptr %12, align 4
  %171 = add nsw i32 %170, 1
  store i32 %171, ptr %12, align 4
  br label %127, !llvm.loop !126

172:                                              ; preds = %143
  %173 = load ptr, ptr %7, align 8
  %174 = load ptr, ptr %8, align 8
  call void @Abc_ObjAddFanin(ptr noundef %173, ptr noundef %174)
  br label %175

175:                                              ; preds = %172, %112
  %176 = load i32, ptr %14, align 4
  %177 = add nsw i32 %176, 3
  %178 = load ptr, ptr %10, align 8
  %179 = sext i32 %177 to i64
  %180 = getelementptr inbounds i8, ptr %178, i64 %179
  store ptr %180, ptr %10, align 8
  br label %73, !llvm.loop !127

181:                                              ; preds = %73
  %182 = load ptr, ptr %11, align 8
  %183 = call i32 @Abc_SopIsComplement(ptr noundef %182)
  %184 = icmp ne i32 %183, 0
  br i1 %184, label %185, label %189

185:                                              ; preds = %181
  %186 = load ptr, ptr %7, align 8
  %187 = getelementptr inbounds %struct.Abc_Obj_t_, ptr %186, i32 0, i32 6
  %188 = load ptr, ptr %187, align 8
  call void @Abc_SopComplement(ptr noundef %188)
  br label %189

189:                                              ; preds = %185, %181
  %190 = load ptr, ptr %7, align 8
  %191 = load ptr, ptr %4, align 8
  %192 = getelementptr inbounds %struct.Abc_Obj_t_, ptr %191, i32 0, i32 7
  store ptr %190, ptr %192, align 8
  br label %193

193:                                              ; preds = %189, %47
  ret void
}