; Function Attrs: nounwind uwtable
define void @Abc_NodeSopToCubes(ptr noundef %0, ptr noundef %1, i32 noundef %2) local_unnamed_addr #0 {
  %4 = getelementptr inbounds nuw i8, ptr %0, i64 56
  %5 = load ptr, ptr %4, align 8
  %6 = getelementptr i8, ptr %0, i64 28
  %.val78 = load i32, ptr %6, align 4
  %7 = tail call i32 @Abc_SopGetCubeNum(ptr noundef %5) #28
  %8 = icmp slt i32 %7, 2
  br i1 %8, label %9, label %25

9:                                                ; preds = %3
  %10 = tail call ptr @Abc_NtkDupObj(ptr noundef %1, ptr noundef nonnull %0, i32 noundef 0) #28
  %.val85 = load i32, ptr %6, align 4
  %11 = icmp sgt i32 %.val85, 0
  br i1 %11, label %.lr.ph, label %.critedge

.lr.ph:                                           ; preds = %9
  %12 = getelementptr i8, ptr %0, i64 32
  br label %13

13:                                               ; preds = %.lr.ph, %13
  %indvars.iv92 = phi i64 [ 0, %.lr.ph ], [ %indvars.iv.next93, %13 ]
  %.val81 = load ptr, ptr %0, align 8
  %.val82 = load ptr, ptr %12, align 8
  %14 = getelementptr i8, ptr %.val81, i64 32
  %.val81.val = load ptr, ptr %14, align 8
  %15 = getelementptr i8, ptr %.val81.val, i64 8
  %.val81.val.val = load ptr, ptr %15, align 8
  %16 = getelementptr inbounds nuw i32, ptr %.val82, i64 %indvars.iv92
  %17 = load i32, ptr %16, align 4
  %18 = sext i32 %17 to i64
  %19 = getelementptr inbounds ptr, ptr %.val81.val.val, i64 %18
  %20 = load ptr, ptr %19, align 8
  %21 = getelementptr inbounds nuw i8, ptr %20, i64 64
  %22 = load ptr, ptr %21, align 8
  tail call void @Abc_ObjAddFanin(ptr noundef %10, ptr noundef %22) #28
  %indvars.iv.next93 = add nuw nsw i64 %indvars.iv92, 1
  %.val = load i32, ptr %6, align 4
  %23 = sext i32 %.val to i64
  %24 = icmp slt i64 %indvars.iv.next93, %23
  br i1 %24, label %13, label %.critedge, !llvm.loop !121

25:                                               ; preds = %3
  %26 = tail call ptr @Abc_NtkCreateObj(ptr noundef %1, i32 noundef 7) #28
  %.not = icmp eq i32 %2, 0
  %27 = getelementptr inbounds nuw i8, ptr %1, i64 256
  %28 = load ptr, ptr %27, align 8
  %29 = tail call i32 @Abc_SopGetCubeNum(ptr noundef %5) #28
  br i1 %.not, label %32, label %30

30:                                               ; preds = %25
  %31 = tail call ptr @Abc_SopCreateXorSpecial(ptr noundef %28, i32 noundef %29) #28
  br label %34

32:                                               ; preds = %25
  %33 = tail call ptr @Abc_SopCreateOr(ptr noundef %28, i32 noundef %29, ptr noundef null) #28
  br label %34

34:                                               ; preds = %32, %30
  %.sink = phi ptr [ %33, %32 ], [ %31, %30 ]
  %35 = getelementptr inbounds nuw i8, ptr %26, i64 56
  store ptr %.sink, ptr %35, align 8
  %36 = load i8, ptr %5, align 1
  %.not7283 = icmp eq i8 %36, 0
  br i1 %.not7283, label %._crit_edge, label %.preheader.lr.ph

.preheader.lr.ph:                                 ; preds = %34
  %37 = getelementptr inbounds nuw i8, ptr %1, i64 256
  %38 = getelementptr i8, ptr %0, i64 32
  %39 = sext i32 %.val78 to i64
  br label %.preheader

.preheader:                                       ; preds = %.preheader.lr.ph, %.critedge5
  %40 = phi i8 [ %36, %.preheader.lr.ph ], [ %77, %.critedge5 ]
  %.06984 = phi ptr [ %5, %.preheader.lr.ph ], [ %76, %.critedge5 ]
  br label %41

41:                                               ; preds = %.preheader, %43
  %42 = phi i8 [ %40, %.preheader ], [ %.pre, %43 ]
  %indvars.iv = phi i64 [ 0, %.preheader ], [ %indvars.iv.next, %43 ]
  %.0 = phi i32 [ 0, %.preheader ], [ %spec.select, %43 ]
  switch i8 %42, label %43 [
    i8 32, label %.critedge2
    i8 0, label %.critedge2
  ]

43:                                               ; preds = %41
  %44 = and i8 %42, -2
  %or.cond = icmp eq i8 %44, 48
  %45 = zext i1 %or.cond to i32
  %spec.select = add nuw nsw i32 %.0, %45
  %indvars.iv.next = add nuw nsw i64 %indvars.iv, 1
  %.phi.trans.insert = getelementptr inbounds nuw i8, ptr %.06984, i64 %indvars.iv.next
  %.pre = load i8, ptr %.phi.trans.insert, align 1
  br label %41, !llvm.loop !122

.critedge2:                                       ; preds = %41, %41
  %46 = icmp eq i32 %.0, 0
  br i1 %46, label %47, label %49

47:                                               ; preds = %.critedge2
  %48 = tail call ptr @Abc_NtkCreateNodeConst1(ptr noundef %1) #28
  br label %.critedge5

49:                                               ; preds = %.critedge2
  %50 = tail call ptr @Abc_NtkCreateObj(ptr noundef %1, i32 noundef 7) #28
  %51 = load ptr, ptr %37, align 8
  %52 = tail call ptr @Abc_SopCreateAnd(ptr noundef %51, i32 noundef %.0, ptr noundef null) #28
  %53 = getelementptr inbounds nuw i8, ptr %50, i64 56
  store ptr %52, ptr %53, align 8
  br label %54

54:                                               ; preds = %74, %49
  %indvars.iv89 = phi i64 [ %indvars.iv.next90, %74 ], [ 0, %49 ]
  %.2 = phi i32 [ %.3, %74 ], [ 0, %49 ]
  %55 = getelementptr inbounds nuw i8, ptr %.06984, i64 %indvars.iv89
  %56 = load i8, ptr %55, align 1
  switch i8 %56, label %57 [
    i8 32, label %.critedge5
    i8 0, label %.critedge5
  ]

57:                                               ; preds = %54
  %58 = add i8 %56, -50
  %or.cond7 = icmp ult i8 %58, -2
  br i1 %or.cond7, label %74, label %59

59:                                               ; preds = %57
  %.val79 = load ptr, ptr %0, align 8
  %.val80 = load ptr, ptr %38, align 8
  %60 = getelementptr i8, ptr %.val79, i64 32
  %.val79.val = load ptr, ptr %60, align 8
  %61 = getelementptr i8, ptr %.val79.val, i64 8
  %.val79.val.val = load ptr, ptr %61, align 8
  %62 = getelementptr inbounds nuw i32, ptr %.val80, i64 %indvars.iv89
  %63 = load i32, ptr %62, align 4
  %64 = sext i32 %63 to i64
  %65 = getelementptr inbounds ptr, ptr %.val79.val.val, i64 %64
  %66 = load ptr, ptr %65, align 8
  %67 = getelementptr inbounds nuw i8, ptr %66, i64 64
  %68 = load ptr, ptr %67, align 8
  tail call void @Abc_ObjAddFanin(ptr noundef %50, ptr noundef %68) #28
  %69 = icmp eq i8 %56, 48
  br i1 %69, label %70, label %72

70:                                               ; preds = %59
  %71 = load ptr, ptr %53, align 8
  tail call void @Abc_SopComplementVar(ptr noundef %71, i32 noundef %.2) #28
  br label %72

72:                                               ; preds = %70, %59
  %73 = add nsw i32 %.2, 1
  br label %74

74:                                               ; preds = %57, %72
  %.3 = phi i32 [ %.2, %57 ], [ %73, %72 ]
  %indvars.iv.next90 = add nuw nsw i64 %indvars.iv89, 1
  br label %54, !llvm.loop !123

.critedge5:                                       ; preds = %54, %54, %47
  %.sink95 = phi ptr [ %48, %47 ], [ %50, %54 ], [ %50, %54 ]
  tail call void @Abc_ObjAddFanin(ptr noundef %26, ptr noundef %.sink95) #28
  %75 = getelementptr i8, ptr %.06984, i64 %39
  %76 = getelementptr i8, ptr %75, i64 3
  %77 = load i8, ptr %76, align 1
  %.not72 = icmp eq i8 %77, 0
  br i1 %.not72, label %._crit_edge, label %.preheader, !llvm.loop !124

._crit_edge:                                      ; preds = %.critedge5, %34
  %78 = tail call i32 @Abc_SopIsComplement(ptr noundef nonnull %5) #28
  %.not73 = icmp eq i32 %78, 0
  br i1 %.not73, label %81, label %79

79:                                               ; preds = %._crit_edge
  %80 = load ptr, ptr %35, align 8
  tail call void @Abc_SopComplement(ptr noundef %80) #28
  br label %81

81:                                               ; preds = %79, %._crit_edge
  %82 = getelementptr inbounds nuw i8, ptr %0, i64 64
  store ptr %26, ptr %82, align 8
  br label %.critedge

.critedge:                                        ; preds = %13, %9, %81
  ret void
}